; Function Attrs: nounwind uwtable
define void @wolfSSL_RefWithMutexInit(ptr noundef %0, ptr noundef writeonly captures(none) initializes((0, 4)) %1) local_unnamed_addr #2 {
  %3 = tail call i32 @pthread_mutex_init(ptr noundef %0, ptr noundef null) #16
  %4 = icmp eq i32 %3, 0
  %..i = select i1 %4, i32 0, i32 -106
  %5 = getelementptr inbounds nuw i8, ptr %0, i64 40
  store i32 1, ptr %5, align 8, !tbaa !29
  store i32 %..i, ptr %1, align 4, !tbaa !3
  ret void
}